target datalayout = "e-m:e-p270:32:32-p271:32:32-p272:64:64-i64:64-i128:128-f80:128-n8:16:32:64-S128"
target triple = "x86_64-pc-linux-gnu"

%"struct.(anonymous namespace)::GAUSS" = type { double, double, double, double }
%struct.PJ_LP = type { double, double }

; Function Attrs: mustprogress nounwind uwtable
define internal noundef double @_ZL4sratdd(double noundef %0, double noundef %1) #5 {
  %3 = alloca double, align 8
  %4 = alloca double, align 8
  store double %0, ptr %3, align 8, !tbaa !3
  store double %1, ptr %4, align 8, !tbaa !3
  %5 = load double, ptr %3, align 8, !tbaa !3
  %6 = fsub double 1.000000e+00, %5
  %7 = load double, ptr %3, align 8, !tbaa !3
  %8 = fadd double 1.000000e+00, %7
  %9 = fdiv double %6, %8
  %10 = load double, ptr %4, align 8, !tbaa !3
  %11 = call double @pow(double noundef %9, double noundef %10) #7, !tbaa !14
  ret double %11
}

; Function Attrs: mustprogress uwtable
define hidden { double, double } @_Z12pj_inv_gaussP6pj_ctx5PJ_LPPKv(ptr noundef %0, double %1, double %2, ptr noundef %3) #0 {
  %5 = alloca %struct.PJ_LP, align 8
  %6 = alloca %struct.PJ_LP, align 8
  %7 = alloca ptr, align 8
  %8 = alloca ptr, align 8
  %9 = alloca ptr, align 8
  %10 = alloca double, align 8
  %11 = alloca i32, align 4
  %12 = getelementptr inbounds nuw { double, double }, ptr %6, i32 0, i32 0
  store double %1, ptr %12, align 8
  %13 = getelementptr inbounds nuw { double, double }, ptr %6, i32 0, i32 1
  store double %2, ptr %13, align 8
  store ptr %0, ptr %7, align 8, !tbaa !19
  store ptr %3, ptr %8, align 8, !tbaa !21
  call void @llvm.lifetime.start.p0(i64 8, ptr %9) #7
  %14 = load ptr, ptr %8, align 8, !tbaa !21
  store ptr %14, ptr %9, align 8, !tbaa !10
  call void @llvm.lifetime.start.p0(i64 8, ptr %10) #7
  call void @llvm.lifetime.start.p0(i64 4, ptr %11) #7
  %15 = getelementptr inbounds nuw %struct.PJ_LP, ptr %6, i32 0, i32 0
  %16 = load double, ptr %15, align 8, !tbaa !24
  %17 = load ptr, ptr %9, align 8, !tbaa !10
  %18 = getelementptr inbounds nuw %"struct.(anonymous namespace)::GAUSS", ptr %17, i32 0, i32 0
  %19 = load double, ptr %18, align 8, !tbaa !16
  %20 = fdiv double %16, %19
  %21 = getelementptr inbounds nuw %struct.PJ_LP, ptr %5, i32 0, i32 0
  store double %20, ptr %21, align 8, !tbaa !24
  %22 = getelementptr inbounds nuw %struct.PJ_LP, ptr %6, i32 0, i32 1
  %23 = load double, ptr %22, align 8, !tbaa !22
  %24 = call double @llvm.fmuladd.f64(double 5.000000e-01, double %23, double 0x3FE921FB54442D18)
  %25 = call double @tan(double noundef %24) #7, !tbaa !14
  %26 = load ptr, ptr %9, align 8, !tbaa !10
  %27 = getelementptr inbounds nuw %"struct.(anonymous namespace)::GAUSS", ptr %26, i32 0, i32 1
  %28 = load double, ptr %27, align 8, !tbaa !18
  %29 = fdiv double %25, %28
  %30 = load ptr, ptr %9, align 8, !tbaa !10
  %31 = getelementptr inbounds nuw %"struct.(anonymous namespace)::GAUSS", ptr %30, i32 0, i32 0
  %32 = load double, ptr %31, align 8, !tbaa !16
  %33 = fdiv double 1.000000e+00, %32
  %34 = call double @pow(double noundef %29, double noundef %33) #7, !tbaa !14
  store double %34, ptr %10, align 8, !tbaa !3
  store i32 20, ptr %11, align 4, !tbaa !14
  br label %35

35:                                               ; preds = %68, %4
  %36 = load i32, ptr %11, align 4, !tbaa !14
  %37 = icmp ne i32 %36, 0
  br i1 %37, label %38, label %71

38:                                               ; preds = %35
  %39 = load double, ptr %10, align 8, !tbaa !3
  %40 = load ptr, ptr %9, align 8, !tbaa !10
  %41 = getelementptr inbounds nuw %"struct.(anonymous namespace)::GAUSS", ptr %40, i32 0, i32 2
  %42 = load double, ptr %41, align 8, !tbaa !12
  %43 = getelementptr inbounds nuw %struct.PJ_LP, ptr %6, i32 0, i32 1
  %44 = load double, ptr %43, align 8, !tbaa !22
  %45 = call double @sin(double noundef %44) #7, !tbaa !14
  %46 = fmul double %42, %45
  %47 = load ptr, ptr %9, align 8, !tbaa !10
  %48 = getelementptr inbounds nuw %"struct.(anonymous namespace)::GAUSS", ptr %47, i32 0, i32 2
  %49 = load double, ptr %48, align 8, !tbaa !12
  %50 = fmul double -5.000000e-01, %49
  %51 = call noundef double @_ZL4sratdd(double noundef %46, double noundef %50)
  %52 = fmul double %39, %51
  %53 = call double @atan(double noundef %52) #7, !tbaa !14
  %54 = call double @llvm.fmuladd.f64(double 2.000000e+00, double %53, double 0xBFF921FB54442D18)
  %55 = getelementptr inbounds nuw %struct.PJ_LP, ptr %5, i32 0, i32 1
  store double %54, ptr %55, align 8, !tbaa !22
  %56 = getelementptr inbounds nuw %struct.PJ_LP, ptr %5, i32 0, i32 1
  %57 = load double, ptr %56, align 8, !tbaa !22
  %58 = getelementptr inbounds nuw %struct.PJ_LP, ptr %6, i32 0, i32 1
  %59 = load double, ptr %58, align 8, !tbaa !22
  %60 = fsub double %57, %59
  %61 = call double @llvm.fabs.f64(double %60)
  %62 = fcmp olt double %61, 0x3D06849B86A12B9B
  br i1 %62, label %63, label %64

63:                                               ; preds = %38
  br label %71

64:                                               ; preds = %38
  %65 = getelementptr inbounds nuw %struct.PJ_LP, ptr %5, i32 0, i32 1
  %66 = load double, ptr %65, align 8, !tbaa !22
  %67 = getelementptr inbounds nuw %struct.PJ_LP, ptr %6, i32 0, i32 1
  store double %66, ptr %67, align 8, !tbaa !22
  br label %68

68:                                               ; preds = %64
  %69 = load i32, ptr %11, align 4, !tbaa !14
  %70 = add nsw i32 %69, -1
  store i32 %70, ptr %11, align 4, !tbaa !14
  br label %35, !llvm.loop !25

71:                                               ; preds = %63, %35
  %72 = load i32, ptr %11, align 4, !tbaa !14
  %73 = icmp ne i32 %72, 0
  br i1 %73, label %76, label %74

74:                                               ; preds = %71
  %75 = load ptr, ptr %7, align 8, !tbaa !19
  call void @_Z22proj_context_errno_setP6pj_ctxi(ptr noundef %75, i32 noundef 2050)
  br label %76

76:                                               ; preds = %74, %71
  call void @llvm.lifetime.end.p0(i64 4, ptr %11) #7
  call void @llvm.lifetime.end.p0(i64 8, ptr %10) #7
  call void @llvm.lifetime.end.p0(i64 8, ptr %9) #7
  %77 = load { double, double }, ptr %5, align 8
  ret { double, double } %77
}