; Function Attrs: mustprogress uwtable
define hidden { double, double } @_Z12pj_inv_gaussP6pj_ctx5PJ_LPPKv(ptr noundef %0, double %1, double %2, ptr noundef readonly captures(none) %3) local_unnamed_addr #6 {
  %5 = load double, ptr %3, align 8, !tbaa !11
  %6 = tail call double @llvm.fmuladd.f64(double %2, double 5.000000e-01, double 0x3FE921FB54442D18)
  %7 = tail call double @tan(double noundef %6) #9, !tbaa !8
  %8 = getelementptr inbounds nuw i8, ptr %3, i64 8
  %9 = load double, ptr %8, align 8, !tbaa !13
  %10 = fdiv double %7, %9
  %11 = fdiv double 1.000000e+00, %5
  %12 = tail call double @pow(double noundef %10, double noundef %11) #9, !tbaa !8
  %13 = getelementptr inbounds nuw i8, ptr %3, i64 16
  %14 = load double, ptr %13, align 8, !tbaa !3
  %15 = fmul double %14, -5.000000e-01
  br label %18

16:                                               ; preds = %18
  %17 = add nsw i32 %.020, -1
  %.not = icmp eq i32 %17, 0
  br i1 %.not, label %31, label %18, !llvm.loop !14

18:                                               ; preds = %4, %16
  %.020 = phi i32 [ 20, %4 ], [ %17, %16 ]
  %.sroa.2.019 = phi double [ %2, %4 ], [ %27, %16 ]
  %19 = tail call double @sin(double noundef %.sroa.2.019) #9, !tbaa !8
  %20 = fmul double %14, %19
  %21 = fsub double 1.000000e+00, %20
  %22 = fadd double %20, 1.000000e+00
  %23 = fdiv double %21, %22
  %24 = tail call noundef double @pow(double noundef %23, double noundef %15) #9, !tbaa !8
  %25 = fmul double %12, %24
  %26 = tail call double @atan(double noundef %25) #9, !tbaa !8
  %27 = tail call double @llvm.fmuladd.f64(double %26, double 2.000000e+00, double 0xBFF921FB54442D18)
  %28 = fsub double %27, %.sroa.2.019
  %29 = tail call double @llvm.fabs.f64(double %28)
  %30 = fcmp olt double %29, 0x3D06849B86A12B9B
  br i1 %30, label %.loopexit, label %16

31:                                               ; preds = %16
  tail call void @_Z22proj_context_errno_setP6pj_ctxi(ptr noundef %0, i32 noundef 2050)
  br label %.loopexit

.loopexit:                                        ; preds = %18, %31
  %32 = fdiv double %1, %5
  %.fca.0.insert = insertvalue { double, double } poison, double %32, 0
  %.fca.1.insert = insertvalue { double, double } %.fca.0.insert, double %27, 1
  ret { double, double } %.fca.1.insert
}